; ModuleID = '58/17.c'
source_filename = "58/17.c"
target datalayout = "e-m:e-p270:32:32-p271:32:32-p272:64:64-i64:64-f80:128-n8:16:32:64-S128"
target triple = "x86_64-pc-linux-gnu"

@.str = private unnamed_addr constant [4 x i8] c"%d\0A\00", align 1

; Function Attrs: noinline nounwind uwtable
define dso_local i32 @main() #0 {
  %1 = alloca i32, align 4
  %2 = alloca i32, align 4
  %3 = alloca i32, align 4
  %4 = alloca i32, align 4
  %5 = alloca [81 x i8], align 16
  %6 = alloca i8*, align 8
  store i32 0, i32* %1, align 4
  %7 = call i32 (i8*, ...) @__isoc99_scanf(i8* getelementptr inbounds ([4 x i8], [4 x i8]* @.str, i64 0, i64 0), i32* %2)
  store i32 0, i32* %3, align 4
  br label %8

8:                                                ; preds = %95, %0
  %9 = load i32, i32* %3, align 4
  %10 = load i32, i32* %2, align 4
  %11 = icmp slt i32 %9, %10
  br i1 %11, label %12, label %100

12:                                               ; preds = %8
  %13 = getelementptr inbounds [81 x i8], [81 x i8]* %5, i64 0, i64 0
  %14 = call i32 (i8*, ...) bitcast (i32 (...)* @gets to i32 (i8*, ...)*)(i8* %13)
  %15 = getelementptr inbounds [81 x i8], [81 x i8]* %5, i64 0, i64 0
  store i8* %15, i8** %6, align 8
  store i32 0, i32* %4, align 4
  %16 = load i8*, i8** %6, align 8
  %17 = load i8, i8* %16, align 1
  %18 = sext i8 %17 to i32
  %19 = icmp sge i32 %18, 65
  br i1 %19, label %20, label %25

20:                                               ; preds = %12
  %21 = load i8*, i8** %6, align 8
  %22 = load i8, i8* %21, align 1
  %23 = sext i8 %22 to i32
  %24 = icmp sle i32 %23, 90
  br i1 %24, label %40, label %25

25:                                               ; preds = %20, %12
  %26 = load i8*, i8** %6, align 8
  %27 = load i8, i8* %26, align 1
  %28 = sext i8 %27 to i32
  %29 = icmp sge i32 %28, 97
  br i1 %29, label %30, label %35

30:                                               ; preds = %25
  %31 = load i8*, i8** %6, align 8
  %32 = load i8, i8* %31, align 1
  %33 = sext i8 %32 to i32
  %34 = icmp sle i32 %33, 122
  br i1 %34, label %40, label %35

35:                                               ; preds = %30, %25
  %36 = load i8*, i8** %6, align 8
  %37 = load i8, i8* %36, align 1
  %38 = sext i8 %37 to i32
  %39 = icmp eq i32 %38, 95
  br i1 %39, label %40, label %41

40:                                               ; preds = %35, %30, %20
  store i32 1, i32* %4, align 4
  br label %42

41:                                               ; preds = %35
  store i32 0, i32* %4, align 4
  br label %42

42:                                               ; preds = %41, %40
  %43 = load i8*, i8** %6, align 8
  %44 = getelementptr inbounds i8, i8* %43, i32 1
  store i8* %44, i8** %6, align 8
  br label %45

45:                                               ; preds = %92, %42
  %46 = load i8*, i8** %6, align 8
  %47 = load i8, i8* %46, align 1
  %48 = sext i8 %47 to i32
  %49 = icmp ne i32 %48, 0
  br i1 %49, label %50, label %53

50:                                               ; preds = %45
  %51 = load i32, i32* %4, align 4
  %52 = icmp eq i32 %51, 1
  br label %53

53:                                               ; preds = %50, %45
  %54 = phi i1 [ false, %45 ], [ %52, %50 ]
  br i1 %54, label %55, label %95

55:                                               ; preds = %53
  %56 = load i8*, i8** %6, align 8
  %57 = load i8, i8* %56, align 1
  %58 = sext i8 %57 to i32
  %59 = icmp sge i32 %58, 48
  br i1 %59, label %60, label %65

60:                                               ; preds = %55
  %61 = load i8*, i8** %6, align 8
  %62 = load i8, i8* %61, align 1
  %63 = sext i8 %62 to i32
  %64 = icmp sle i32 %63, 57
  br i1 %64, label %90, label %65

65:                                               ; preds = %60, %55
  %66 = load i8*, i8** %6, align 8
  %67 = load i8, i8* %66, align 1
  %68 = sext i8 %67 to i32
  %69 = icmp sge i32 %68, 65
  br i1 %69, label %70, label %75

70:                                               ; preds = %65
  %71 = load i8*, i8** %6, align 8
  %72 = load i8, i8* %71, align 1
  %73 = sext i8 %72 to i32
  %74 = icmp sle i32 %73, 90
  br i1 %74, label %90, label %75

75:                                               ; preds = %70, %65
  %76 = load i8*, i8** %6, align 8
  %77 = load i8, i8* %76, align 1
  %78 = sext i8 %77 to i32
  %79 = icmp sge i32 %78, 97
  br i1 %79, label %80, label %85

80:                                               ; preds = %75
  %81 = load i8*, i8** %6, align 8
  %82 = load i8, i8* %81, align 1
  %83 = sext i8 %82 to i32
  %84 = icmp sle i32 %83, 122
  br i1 %84, label %90, label %85

85:                                               ; preds = %80, %75
  %86 = load i8*, i8** %6, align 8
  %87 = load i8, i8* %86, align 1
  %88 = sext i8 %87 to i32
  %89 = icmp eq i32 %88, 95
  br i1 %89, label %90, label %91

90:                                               ; preds = %85, %80, %70, %60
  store i32 1, i32* %4, align 4
  br label %92

91:                                               ; preds = %85
  store i32 0, i32* %4, align 4
  br label %92

92:                                               ; preds = %91, %90
  %93 = load i8*, i8** %6, align 8
  %94 = getelementptr inbounds i8, i8* %93, i32 1
  store i8* %94, i8** %6, align 8
  br label %45

95:                                               ; preds = %53
  %96 = load i32, i32* %4, align 4
  %97 = call i32 (i8*, ...) @printf(i8* getelementptr inbounds ([4 x i8], [4 x i8]* @.str, i64 0, i64 0), i32 %96)
  %98 = load i32, i32* %3, align 4
  %99 = add nsw i32 %98, 1
  store i32 %99, i32* %3, align 4
  br label %8

100:                                              ; preds = %8
  ret i32 0
}

declare dso_local i32 @__isoc99_scanf(i8*, ...) #1

declare dso_local i32 @gets(...) #1

declare dso_local i32 @printf(i8*, ...) #1


!llvm.module.flags = !{!0}
!llvm.ident = !{!1}

!0 = !{i32 1, !"wchar_size", i32 4}
!1 = !{!"clang version 10.0.0-4ubuntu1 "}
